; Function Attrs: nounwind uwtable
define dso_local i32 @onigenc_unicode_apply_all_case_fold(i32 noundef %0, ptr noundef readonly captures(none) %1, ptr noundef %2) local_unnamed_addr #0 {
  %4 = alloca i32, align 4
  %5 = alloca i32, align 4
  %6 = alloca i32, align 4
  %7 = alloca i32, align 4
  %8 = tail call fastcc i32 @apply_case_fold1(i32 noundef %0, i32 noundef 0, i32 noundef 4296, ptr noundef %1, ptr noundef %2)
  %.not = icmp eq i32 %8, 0
  br i1 %.not, label %9, label %64

9:                                                ; preds = %3
  %10 = tail call fastcc i32 @apply_case_fold1(i32 noundef %0, i32 noundef 4296, i32 noundef 4299, ptr noundef %1, ptr noundef %2)
  %.not28 = icmp eq i32 %10, 0
  br i1 %.not28, label %11, label %64

11:                                               ; preds = %9
  %12 = and i32 %0, 1073741824
  %13 = icmp eq i32 %12, 0
  br i1 %13, label %64, label %.preheader62

.preheader62:                                     ; preds = %11, %33
  %.038.i80 = phi i32 [ %36, %33 ], [ 0, %11 ]
  %14 = sext i32 %.038.i80 to i64
  %15 = getelementptr inbounds i32, ptr @OnigUnicodeFolds2, i64 %14
  %16 = add nsw i32 %.038.i80, 2
  %17 = sext i32 %16 to i64
  %18 = getelementptr inbounds [265 x i32], ptr @OnigUnicodeFolds2, i64 0, i64 %17
  %19 = load i32, ptr %18, align 4, !tbaa !17
  %.not4765.i = icmp sgt i32 %19, 0
  br i1 %.not4765.i, label %.lr.ph69.i, label %33

.lr.ph69.i:                                       ; preds = %.preheader62
  %20 = getelementptr inbounds nuw i8, ptr %15, i64 12
  %wide.trip.count85.i = zext nneg i32 %19 to i64
  br label %21

21:                                               ; preds = %._crit_edge.i, %.lr.ph69.i
  %indvars.iv82.i = phi i64 [ 0, %.lr.ph69.i ], [ %indvars.iv.next83.i, %._crit_edge.i ]
  call void @llvm.lifetime.start.p0(i64 4, ptr nonnull %6) #10
  %22 = getelementptr inbounds nuw i32, ptr %20, i64 %indvars.iv82.i
  %23 = load i32, ptr %22, align 4, !tbaa !17
  store i32 %23, ptr %6, align 4, !tbaa !17
  %24 = call i32 %1(i32 noundef %23, ptr noundef nonnull %15, i32 noundef 2, ptr noundef %2) #10
  %.not.i = icmp eq i32 %24, 0
  br i1 %.not.i, label %.preheader.i, label %apply_case_fold2.exit

.preheader.i:                                     ; preds = %21
  %.not71.i = icmp eq i64 %indvars.iv82.i, 0
  br i1 %.not71.i, label %._crit_edge.i, label %.lr.ph.i

25:                                               ; preds = %30
  %indvars.iv.next.i = add nuw nsw i64 %indvars.iv.i, 1
  %exitcond.not.i = icmp eq i64 %indvars.iv.next.i, %indvars.iv82.i
  br i1 %exitcond.not.i, label %._crit_edge.i, label %.lr.ph.i, !llvm.loop !23

.lr.ph.i:                                         ; preds = %.preheader.i, %25
  %indvars.iv.i = phi i64 [ %indvars.iv.next.i, %25 ], [ 0, %.preheader.i ]
  call void @llvm.lifetime.start.p0(i64 4, ptr nonnull %7) #10
  %26 = getelementptr inbounds nuw i32, ptr %20, i64 %indvars.iv.i
  %27 = load i32, ptr %26, align 4, !tbaa !17
  store i32 %27, ptr %7, align 4, !tbaa !17
  %28 = load i32, ptr %6, align 4, !tbaa !17
  %29 = call i32 %1(i32 noundef %28, ptr noundef nonnull %7, i32 noundef 1, ptr noundef %2) #10
  %.not45.i = icmp eq i32 %29, 0
  br i1 %.not45.i, label %30, label %.thread.i

.thread.i:                                        ; preds = %.lr.ph.i
  call void @llvm.lifetime.end.p0(i64 4, ptr nonnull %7) #10
  br label %apply_case_fold2.exit

30:                                               ; preds = %.lr.ph.i
  %31 = load i32, ptr %7, align 4, !tbaa !17
  %32 = call i32 %1(i32 noundef %31, ptr noundef nonnull %6, i32 noundef 1, ptr noundef %2) #10
  %.not46.i = icmp eq i32 %32, 0
  call void @llvm.lifetime.end.p0(i64 4, ptr nonnull %7) #10
  br i1 %.not46.i, label %25, label %apply_case_fold2.exit

._crit_edge.i:                                    ; preds = %25, %.preheader.i
  call void @llvm.lifetime.end.p0(i64 4, ptr nonnull %6) #10
  %indvars.iv.next83.i = add nuw nsw i64 %indvars.iv82.i, 1
  %exitcond86.not.i = icmp eq i64 %indvars.iv.next83.i, %wide.trip.count85.i
  br i1 %exitcond86.not.i, label %._crit_edge70.loopexit.i, label %21, !llvm.loop !24

._crit_edge70.loopexit.i:                         ; preds = %._crit_edge.i
  %.pre.i = load i32, ptr %18, align 4, !tbaa !17
  br label %33

33:                                               ; preds = %._crit_edge70.loopexit.i, %.preheader62
  %34 = phi i32 [ %.pre.i, %._crit_edge70.loopexit.i ], [ %19, %.preheader62 ]
  %35 = add nsw i32 %.038.i80, 3
  %36 = add i32 %35, %34
  %37 = icmp slt i32 %36, 261
  br i1 %37, label %.preheader62, label %.preheader, !llvm.loop !25

apply_case_fold2.exit:                            ; preds = %21, %30, %.thread.i
  %.237.ph.i = phi i32 [ %29, %.thread.i ], [ %32, %30 ], [ %24, %21 ]
  call void @llvm.lifetime.end.p0(i64 4, ptr nonnull %6) #10
  br label %64

.preheader:                                       ; preds = %33, %57
  %.038.i3281 = phi i32 [ %60, %57 ], [ 261, %33 ]
  %38 = sext i32 %.038.i3281 to i64
  %39 = getelementptr inbounds i32, ptr @OnigUnicodeFolds2, i64 %38
  %40 = add nsw i32 %.038.i3281, 2
  %41 = sext i32 %40 to i64
  %42 = getelementptr inbounds [265 x i32], ptr @OnigUnicodeFolds2, i64 0, i64 %41
  %43 = load i32, ptr %42, align 4, !tbaa !17
  %.not4765.i34 = icmp sgt i32 %43, 0
  br i1 %.not4765.i34, label %.lr.ph69.i35, label %57

.lr.ph69.i35:                                     ; preds = %.preheader
  %44 = getelementptr inbounds nuw i8, ptr %39, i64 12
  %wide.trip.count85.i36 = zext nneg i32 %43 to i64
  br label %45

45:                                               ; preds = %._crit_edge.i50, %.lr.ph69.i35
  %indvars.iv82.i37 = phi i64 [ 0, %.lr.ph69.i35 ], [ %indvars.iv.next83.i51, %._crit_edge.i50 ]
  call void @llvm.lifetime.start.p0(i64 4, ptr nonnull %4) #10
  %46 = getelementptr inbounds nuw i32, ptr %44, i64 %indvars.iv82.i37
  %47 = load i32, ptr %46, align 4, !tbaa !17
  store i32 %47, ptr %4, align 4, !tbaa !17
  %48 = call i32 %1(i32 noundef %47, ptr noundef nonnull %39, i32 noundef 2, ptr noundef %2) #10
  %.not.i38 = icmp eq i32 %48, 0
  br i1 %.not.i38, label %.preheader.i41, label %apply_case_fold2.exit55

.preheader.i41:                                   ; preds = %45
  %.not71.i42 = icmp eq i64 %indvars.iv82.i37, 0
  br i1 %.not71.i42, label %._crit_edge.i50, label %.lr.ph.i43

49:                                               ; preds = %54
  %indvars.iv.next.i48 = add nuw nsw i64 %indvars.iv.i44, 1
  %exitcond.not.i49 = icmp eq i64 %indvars.iv.next.i48, %indvars.iv82.i37
  br i1 %exitcond.not.i49, label %._crit_edge.i50, label %.lr.ph.i43, !llvm.loop !23

.lr.ph.i43:                                       ; preds = %.preheader.i41, %49
  %indvars.iv.i44 = phi i64 [ %indvars.iv.next.i48, %49 ], [ 0, %.preheader.i41 ]
  call void @llvm.lifetime.start.p0(i64 4, ptr nonnull %5) #10
  %50 = getelementptr inbounds nuw i32, ptr %44, i64 %indvars.iv.i44
  %51 = load i32, ptr %50, align 4, !tbaa !17
  store i32 %51, ptr %5, align 4, !tbaa !17
  %52 = load i32, ptr %4, align 4, !tbaa !17
  %53 = call i32 %1(i32 noundef %52, ptr noundef nonnull %5, i32 noundef 1, ptr noundef %2) #10
  %.not45.i45 = icmp eq i32 %53, 0
  br i1 %.not45.i45, label %54, label %.thread.i46

.thread.i46:                                      ; preds = %.lr.ph.i43
  call void @llvm.lifetime.end.p0(i64 4, ptr nonnull %5) #10
  br label %apply_case_fold2.exit55

54:                                               ; preds = %.lr.ph.i43
  %55 = load i32, ptr %5, align 4, !tbaa !17
  %56 = call i32 %1(i32 noundef %55, ptr noundef nonnull %4, i32 noundef 1, ptr noundef %2) #10
  %.not46.i47 = icmp eq i32 %56, 0
  call void @llvm.lifetime.end.p0(i64 4, ptr nonnull %5) #10
  br i1 %.not46.i47, label %49, label %apply_case_fold2.exit55

._crit_edge.i50:                                  ; preds = %49, %.preheader.i41
  call void @llvm.lifetime.end.p0(i64 4, ptr nonnull %4) #10
  %indvars.iv.next83.i51 = add nuw nsw i64 %indvars.iv82.i37, 1
  %exitcond86.not.i52 = icmp eq i64 %indvars.iv.next83.i51, %wide.trip.count85.i36
  br i1 %exitcond86.not.i52, label %._crit_edge70.loopexit.i53, label %45, !llvm.loop !24

._crit_edge70.loopexit.i53:                       ; preds = %._crit_edge.i50
  %.pre.i54 = load i32, ptr %42, align 4, !tbaa !17
  br label %57

57:                                               ; preds = %._crit_edge70.loopexit.i53, %.preheader
  %58 = phi i32 [ %.pre.i54, %._crit_edge70.loopexit.i53 ], [ %43, %.preheader ]
  %59 = add nsw i32 %.038.i3281, 3
  %60 = add i32 %59, %58
  %61 = icmp slt i32 %60, 265
  br i1 %61, label %.preheader, label %62, !llvm.loop !25

apply_case_fold2.exit55:                          ; preds = %45, %54, %.thread.i46
  %.237.ph.i40 = phi i32 [ %53, %.thread.i46 ], [ %56, %54 ], [ %48, %45 ]
  call void @llvm.lifetime.end.p0(i64 4, ptr nonnull %4) #10
  br label %64

62:                                               ; preds = %57
  %63 = call fastcc i32 @apply_case_fold3(ptr noundef %1, ptr noundef %2)
  br label %64

64:                                               ; preds = %apply_case_fold2.exit55, %apply_case_fold2.exit, %62, %11, %9, %3
  %.0 = phi i32 [ %8, %3 ], [ %10, %9 ], [ 0, %11 ], [ %.237.ph.i, %apply_case_fold2.exit ], [ %.237.ph.i40, %apply_case_fold2.exit55 ], [ %63, %62 ]
  ret i32 %.0
}